target datalayout = "e-m:e-p270:32:32-p271:32:32-p272:64:64-i64:64-i128:128-f80:128-n8:16:32:64-S128"
target triple = "x86_64-pc-linux-gnu"

%struct.ForEachState = type { ptr, i32 }
%struct.List = type { i32, i32, i32, ptr, [0 x %union.ListCell] }
%union.ListCell = type { ptr }
%struct.RangeTblEntry = type { i32, ptr, ptr, i32, i32, i8, i8, i32, i32, ptr, ptr, i8, i32, i32, ptr, ptr, ptr, ptr, ptr, i8, ptr, ptr, ptr, i32, i8, ptr, ptr, ptr, ptr, double, ptr, i8, i8, ptr }
%struct.Alias = type { i32, ptr, ptr }
%struct.FormData_pg_attribute = type { i32, %struct.nameData, i32, i16, i16, i32, i16, i8, i8, i8, i8, i8, i8, i8, i8, i8, i8, i8, i16, i32 }
%struct.nameData = type { [64 x i8] }
%struct.String = type { i32, ptr }
%struct.FuzzyAttrMatchState = type { i32, ptr, i16, ptr, i16, ptr, i16, ptr, i16 }

@.str.1 = private unnamed_addr constant [17 x i8] c"parse_relation.c\00", align 1
@.str.9 = private unnamed_addr constant [35 x i8] c"column reference \22%s\22 is ambiguous\00", align 1
@__func__.scanRTEForColumn = private unnamed_addr constant [17 x i8] c"scanRTEForColumn\00", align 1

; Function Attrs: inlinehint nounwind uwtable
define internal i64 @Int16GetDatum(i16 noundef signext %0) #6 {
  %2 = alloca i16, align 2
  store i16 %0, ptr %2, align 2
  %3 = load i16, ptr %2, align 2
  %4 = sext i16 %3 to i64
  ret i64 %4
}

; Function Attrs: inlinehint nounwind uwtable
define internal i64 @ObjectIdGetDatum(i32 noundef %0) #6 {
  %2 = alloca i32, align 4
  store i32 %0, ptr %2, align 4
  %3 = load i32, ptr %2, align 4
  %4 = zext i32 %3 to i64
  ret i64 %4
}

; Function Attrs: nounwind uwtable
define internal i32 @specialAttNum(ptr noundef %0) #0 {
  %2 = alloca i32, align 4
  %3 = alloca ptr, align 8
  %4 = alloca ptr, align 8
  %5 = alloca i32, align 4
  store ptr %0, ptr %3, align 8
  call void @llvm.lifetime.start.p0(i64 8, ptr %4) #8
  %6 = load ptr, ptr %3, align 8
  %7 = call ptr @SystemAttributeByName(ptr noundef %6)
  store ptr %7, ptr %4, align 8
  %8 = load ptr, ptr %4, align 8
  %9 = icmp ne ptr %8, null
  br i1 %9, label %10, label %15

10:                                               ; preds = %1
  %11 = load ptr, ptr %4, align 8
  %12 = getelementptr inbounds nuw %struct.FormData_pg_attribute, ptr %11, i32 0, i32 4
  %13 = load i16, ptr %12, align 2
  %14 = sext i16 %13 to i32
  store i32 %14, ptr %2, align 4
  store i32 1, ptr %5, align 4
  br label %16

15:                                               ; preds = %1
  store i32 0, ptr %2, align 4
  store i32 1, ptr %5, align 4
  br label %16

16:                                               ; preds = %15, %10
  call void @llvm.lifetime.end.p0(i64 8, ptr %4) #8
  %17 = load i32, ptr %2, align 4
  ret i32 %17
}

; Function Attrs: nounwind uwtable
define internal void @updateFuzzyAttrMatchState(i32 noundef %0, ptr noundef %1, ptr noundef %2, ptr noundef %3, ptr noundef %4, i32 noundef %5) #0 {
  %7 = alloca i32, align 4
  %8 = alloca ptr, align 8
  %9 = alloca ptr, align 8
  %10 = alloca ptr, align 8
  %11 = alloca ptr, align 8
  %12 = alloca i32, align 4
  %13 = alloca i32, align 4
  %14 = alloca i32, align 4
  %15 = alloca i32, align 4
  store i32 %0, ptr %7, align 4
  store ptr %1, ptr %8, align 8
  store ptr %2, ptr %9, align 8
  store ptr %3, ptr %10, align 8
  store ptr %4, ptr %11, align 8
  store i32 %5, ptr %12, align 4
  call void @llvm.lifetime.start.p0(i64 4, ptr %13) #8
  call void @llvm.lifetime.start.p0(i64 4, ptr %14) #8
  %16 = load i32, ptr %7, align 4
  %17 = load ptr, ptr %8, align 8
  %18 = getelementptr inbounds nuw %struct.FuzzyAttrMatchState, ptr %17, i32 0, i32 0
  %19 = load i32, ptr %18, align 8
  %20 = icmp sgt i32 %16, %19
  br i1 %20, label %21, label %22

21:                                               ; preds = %6
  store i32 1, ptr %15, align 4
  br label %107

22:                                               ; preds = %6
  %23 = load ptr, ptr %10, align 8
  %24 = getelementptr inbounds i8, ptr %23, i64 0
  %25 = load i8, ptr %24, align 1
  %26 = sext i8 %25 to i32
  %27 = icmp eq i32 %26, 0
  br i1 %27, label %28, label %29

28:                                               ; preds = %22
  store i32 1, ptr %15, align 4
  br label %107

29:                                               ; preds = %22
  %30 = load ptr, ptr %11, align 8
  %31 = call i64 @strlen(ptr noundef %30) #10
  %32 = trunc i64 %31 to i32
  store i32 %32, ptr %14, align 4
  %33 = load ptr, ptr %10, align 8
  %34 = load ptr, ptr %10, align 8
  %35 = call i64 @strlen(ptr noundef %34) #10
  %36 = trunc i64 %35 to i32
  %37 = load ptr, ptr %11, align 8
  %38 = load i32, ptr %14, align 4
  %39 = load ptr, ptr %8, align 8
  %40 = getelementptr inbounds nuw %struct.FuzzyAttrMatchState, ptr %39, i32 0, i32 0
  %41 = load i32, ptr %40, align 8
  %42 = add i32 %41, 1
  %43 = load i32, ptr %7, align 4
  %44 = sub i32 %42, %43
  %45 = call i32 @varstr_levenshtein_less_equal(ptr noundef %33, i32 noundef %36, ptr noundef %37, i32 noundef %38, i32 noundef 1, i32 noundef 1, i32 noundef 1, i32 noundef %44, i1 noundef zeroext true)
  store i32 %45, ptr %13, align 4
  %46 = load i32, ptr %13, align 4
  %47 = load i32, ptr %14, align 4
  %48 = sdiv i32 %47, 2
  %49 = icmp sgt i32 %46, %48
  br i1 %49, label %50, label %51

50:                                               ; preds = %29
  store i32 1, ptr %15, align 4
  br label %107

51:                                               ; preds = %29
  %52 = load i32, ptr %7, align 4
  %53 = load i32, ptr %13, align 4
  %54 = add i32 %53, %52
  store i32 %54, ptr %13, align 4
  %55 = load i32, ptr %13, align 4
  %56 = load ptr, ptr %8, align 8
  %57 = getelementptr inbounds nuw %struct.FuzzyAttrMatchState, ptr %56, i32 0, i32 0
  %58 = load i32, ptr %57, align 8
  %59 = icmp slt i32 %55, %58
  br i1 %59, label %60, label %73

60:                                               ; preds = %51
  %61 = load i32, ptr %13, align 4
  %62 = load ptr, ptr %8, align 8
  %63 = getelementptr inbounds nuw %struct.FuzzyAttrMatchState, ptr %62, i32 0, i32 0
  store i32 %61, ptr %63, align 8
  %64 = load ptr, ptr %9, align 8
  %65 = load ptr, ptr %8, align 8
  %66 = getelementptr inbounds nuw %struct.FuzzyAttrMatchState, ptr %65, i32 0, i32 1
  store ptr %64, ptr %66, align 8
  %67 = load i32, ptr %12, align 4
  %68 = trunc i32 %67 to i16
  %69 = load ptr, ptr %8, align 8
  %70 = getelementptr inbounds nuw %struct.FuzzyAttrMatchState, ptr %69, i32 0, i32 2
  store i16 %68, ptr %70, align 8
  %71 = load ptr, ptr %8, align 8
  %72 = getelementptr inbounds nuw %struct.FuzzyAttrMatchState, ptr %71, i32 0, i32 3
  store ptr null, ptr %72, align 8
  br label %106

73:                                               ; preds = %51
  %74 = load i32, ptr %13, align 4
  %75 = load ptr, ptr %8, align 8
  %76 = getelementptr inbounds nuw %struct.FuzzyAttrMatchState, ptr %75, i32 0, i32 0
  %77 = load i32, ptr %76, align 8
  %78 = icmp eq i32 %74, %77
  br i1 %78, label %79, label %105

79:                                               ; preds = %73
  %80 = load ptr, ptr %8, align 8
  %81 = getelementptr inbounds nuw %struct.FuzzyAttrMatchState, ptr %80, i32 0, i32 3
  %82 = load ptr, ptr %81, align 8
  %83 = icmp ne ptr %82, null
  br i1 %83, label %84, label %89

84:                                               ; preds = %79
  %85 = load ptr, ptr %8, align 8
  %86 = getelementptr inbounds nuw %struct.FuzzyAttrMatchState, ptr %85, i32 0, i32 1
  store ptr null, ptr %86, align 8
  %87 = load ptr, ptr %8, align 8
  %88 = getelementptr inbounds nuw %struct.FuzzyAttrMatchState, ptr %87, i32 0, i32 3
  store ptr null, ptr %88, align 8
  br label %104

89:                                               ; preds = %79
  %90 = load ptr, ptr %8, align 8
  %91 = getelementptr inbounds nuw %struct.FuzzyAttrMatchState, ptr %90, i32 0, i32 1
  %92 = load ptr, ptr %91, align 8
  %93 = icmp ne ptr %92, null
  br i1 %93, label %94, label %102

94:                                               ; preds = %89
  %95 = load ptr, ptr %9, align 8
  %96 = load ptr, ptr %8, align 8
  %97 = getelementptr inbounds nuw %struct.FuzzyAttrMatchState, ptr %96, i32 0, i32 3
  store ptr %95, ptr %97, align 8
  %98 = load i32, ptr %12, align 4
  %99 = trunc i32 %98 to i16
  %100 = load ptr, ptr %8, align 8
  %101 = getelementptr inbounds nuw %struct.FuzzyAttrMatchState, ptr %100, i32 0, i32 4
  store i16 %99, ptr %101, align 8
  br label %103

102:                                              ; preds = %89
  br label %103

103:                                              ; preds = %102, %94
  br label %104

104:                                              ; preds = %103, %84
  br label %105

105:                                              ; preds = %104, %73
  br label %106

106:                                              ; preds = %105, %60
  store i32 0, ptr %15, align 4
  br label %107

107:                                              ; preds = %106, %50, %28, %21
  call void @llvm.lifetime.end.p0(i64 4, ptr %14) #8
  call void @llvm.lifetime.end.p0(i64 4, ptr %13) #8
  %108 = load i32, ptr %15, align 4
  switch i32 %108, label %110 [
    i32 0, label %109
    i32 1, label %109
  ]

109:                                              ; preds = %107, %107
  ret void

110:                                              ; preds = %107
  unreachable
}

; Function Attrs: nounwind uwtable
define internal i32 @scanRTEForColumn(ptr noundef %0, ptr noundef %1, ptr noundef %2, ptr noundef %3, i32 noundef %4, i32 noundef %5, ptr noundef %6) #0 {
  %8 = alloca i32, align 4
  %9 = alloca ptr, align 8
  %10 = alloca ptr, align 8
  %11 = alloca ptr, align 8
  %12 = alloca ptr, align 8
  %13 = alloca i32, align 4
  %14 = alloca i32, align 4
  %15 = alloca ptr, align 8
  %16 = alloca i32, align 4
  %17 = alloca i32, align 4
  %18 = alloca ptr, align 8
  %19 = alloca %struct.ForEachState, align 8
  %20 = alloca ptr, align 8
  %21 = alloca i32, align 4
  store ptr %0, ptr %9, align 8
  store ptr %1, ptr %10, align 8
  store ptr %2, ptr %11, align 8
  store ptr %3, ptr %12, align 8
  store i32 %4, ptr %13, align 4
  store i32 %5, ptr %14, align 4
  store ptr %6, ptr %15, align 8
  call void @llvm.lifetime.start.p0(i64 4, ptr %16) #8
  store i32 0, ptr %16, align 4
  call void @llvm.lifetime.start.p0(i64 4, ptr %17) #8
  store i32 0, ptr %17, align 4
  call void @llvm.lifetime.start.p0(i64 8, ptr %18) #8
  call void @llvm.lifetime.start.p0(i64 16, ptr %19) #8
  %22 = getelementptr inbounds nuw %struct.ForEachState, ptr %19, i32 0, i32 0
  %23 = load ptr, ptr %11, align 8
  %24 = getelementptr inbounds nuw %struct.Alias, ptr %23, i32 0, i32 2
  %25 = load ptr, ptr %24, align 8
  store ptr %25, ptr %22, align 8
  %26 = getelementptr inbounds nuw %struct.ForEachState, ptr %19, i32 0, i32 1
  store i32 0, ptr %26, align 8
  %27 = getelementptr i8, ptr %19, i64 12
  call void @llvm.memset.p0.i64(ptr align 4 %27, i8 0, i64 4, i1 false)
  br label %28

28:                                               ; preds = %97, %7
  %29 = getelementptr inbounds nuw %struct.ForEachState, ptr %19, i32 0, i32 0
  %30 = load ptr, ptr %29, align 8
  %31 = icmp ne ptr %30, null
  br i1 %31, label %32, label %49

32:                                               ; preds = %28
  %33 = getelementptr inbounds nuw %struct.ForEachState, ptr %19, i32 0, i32 1
  %34 = load i32, ptr %33, align 8
  %35 = getelementptr inbounds nuw %struct.ForEachState, ptr %19, i32 0, i32 0
  %36 = load ptr, ptr %35, align 8
  %37 = getelementptr inbounds nuw %struct.List, ptr %36, i32 0, i32 1
  %38 = load i32, ptr %37, align 4
  %39 = icmp slt i32 %34, %38
  br i1 %39, label %40, label %49

40:                                               ; preds = %32
  %41 = getelementptr inbounds nuw %struct.ForEachState, ptr %19, i32 0, i32 0
  %42 = load ptr, ptr %41, align 8
  %43 = getelementptr inbounds nuw %struct.List, ptr %42, i32 0, i32 3
  %44 = load ptr, ptr %43, align 8
  %45 = getelementptr inbounds nuw %struct.ForEachState, ptr %19, i32 0, i32 1
  %46 = load i32, ptr %45, align 8
  %47 = sext i32 %46 to i64
  %48 = getelementptr inbounds %union.ListCell, ptr %44, i64 %47
  store ptr %48, ptr %18, align 8
  br label %50

49:                                               ; preds = %32, %28
  store ptr null, ptr %18, align 8
  br label %50

50:                                               ; preds = %49, %40
  %51 = phi i32 [ 1, %40 ], [ 0, %49 ]
  %52 = icmp ne i32 %51, 0
  br i1 %52, label %54, label %53

53:                                               ; preds = %50
  call void @llvm.lifetime.end.p0(i64 16, ptr %19) #8
  br label %101

54:                                               ; preds = %50
  call void @llvm.lifetime.start.p0(i64 8, ptr %20) #8
  %55 = load ptr, ptr %18, align 8
  %56 = load ptr, ptr %55, align 8
  %57 = getelementptr inbounds nuw %struct.String, ptr %56, i32 0, i32 1
  %58 = load ptr, ptr %57, align 8
  store ptr %58, ptr %20, align 8
  %59 = load i32, ptr %17, align 4
  %60 = add i32 %59, 1
  store i32 %60, ptr %17, align 4
  %61 = load ptr, ptr %20, align 8
  %62 = load ptr, ptr %12, align 8
  %63 = call i32 @strcmp(ptr noundef %61, ptr noundef %62) #10
  %64 = icmp eq i32 %63, 0
  br i1 %64, label %65, label %86

65:                                               ; preds = %54
  %66 = load i32, ptr %16, align 4
  %67 = icmp ne i32 %66, 0
  br i1 %67, label %68, label %84

68:                                               ; preds = %65
  br label %69

69:                                               ; preds = %68
  br i1 true, label %70, label %72

70:                                               ; preds = %69
  %71 = call zeroext i1 @errstart_cold(i32 noundef 21, ptr noundef null) #9
  br i1 %71, label %74, label %81

72:                                               ; preds = %69
  %73 = call zeroext i1 @errstart(i32 noundef 21, ptr noundef null)
  br i1 %73, label %74, label %81

74:                                               ; preds = %72, %70
  %75 = call i32 @errcode(i32 noundef 33583236)
  %76 = load ptr, ptr %12, align 8
  %77 = call i32 (ptr, ...) @errmsg(ptr noundef @.str.9, ptr noundef %76)
  %78 = load ptr, ptr %9, align 8
  %79 = load i32, ptr %13, align 4
  %80 = call i32 @parser_errposition(ptr noundef %78, i32 noundef %79)
  call void @errfinish(ptr noundef @.str.1, i32 noundef 850, ptr noundef @__func__.scanRTEForColumn)
  br label %81

81:                                               ; preds = %74, %72, %70
  unreachable

82:                                               ; No predecessors!
  br label %83

83:                                               ; preds = %82
  br label %84

84:                                               ; preds = %83, %65
  %85 = load i32, ptr %17, align 4
  store i32 %85, ptr %16, align 4
  br label %86

86:                                               ; preds = %84, %54
  %87 = load ptr, ptr %15, align 8
  %88 = icmp ne ptr %87, null
  br i1 %88, label %89, label %96

89:                                               ; preds = %86
  %90 = load i32, ptr %14, align 4
  %91 = load ptr, ptr %15, align 8
  %92 = load ptr, ptr %10, align 8
  %93 = load ptr, ptr %20, align 8
  %94 = load ptr, ptr %12, align 8
  %95 = load i32, ptr %17, align 4
  call void @updateFuzzyAttrMatchState(i32 noundef %90, ptr noundef %91, ptr noundef %92, ptr noundef %93, ptr noundef %94, i32 noundef %95)
  br label %96

96:                                               ; preds = %89, %86
  call void @llvm.lifetime.end.p0(i64 8, ptr %20) #8
  br label %97

97:                                               ; preds = %96
  %98 = getelementptr inbounds nuw %struct.ForEachState, ptr %19, i32 0, i32 1
  %99 = load i32, ptr %98, align 8
  %100 = add i32 %99, 1
  store i32 %100, ptr %98, align 8
  br label %28, !llvm.loop !19

101:                                              ; preds = %53
  %102 = load i32, ptr %16, align 4
  %103 = icmp ne i32 %102, 0
  br i1 %103, label %104, label %106

104:                                              ; preds = %101
  %105 = load i32, ptr %16, align 4
  store i32 %105, ptr %8, align 4
  store i32 1, ptr %21, align 4
  br label %137

106:                                              ; preds = %101
  %107 = load ptr, ptr %10, align 8
  %108 = getelementptr inbounds nuw %struct.RangeTblEntry, ptr %107, i32 0, i32 3
  %109 = load i32, ptr %108, align 8
  %110 = icmp eq i32 %109, 0
  br i1 %110, label %111, label %135

111:                                              ; preds = %106
  %112 = load ptr, ptr %10, align 8
  %113 = getelementptr inbounds nuw %struct.RangeTblEntry, ptr %112, i32 0, i32 6
  %114 = load i8, ptr %113, align 1
  %115 = sext i8 %114 to i32
  %116 = icmp ne i32 %115, 99
  br i1 %116, label %117, label %135

117:                                              ; preds = %111
  %118 = load ptr, ptr %12, align 8
  %119 = call i32 @specialAttNum(ptr noundef %118)
  store i32 %119, ptr %17, align 4
  %120 = load i32, ptr %17, align 4
  %121 = icmp ne i32 %120, 0
  br i1 %121, label %122, label %134

122:                                              ; preds = %117
  %123 = load ptr, ptr %10, align 8
  %124 = getelementptr inbounds nuw %struct.RangeTblEntry, ptr %123, i32 0, i32 4
  %125 = load i32, ptr %124, align 4
  %126 = call i64 @ObjectIdGetDatum(i32 noundef %125)
  %127 = load i32, ptr %17, align 4
  %128 = trunc i32 %127 to i16
  %129 = call i64 @Int16GetDatum(i16 noundef signext %128)
  %130 = call zeroext i1 @SearchSysCacheExists(i32 noundef 7, i64 noundef %126, i64 noundef %129, i64 noundef 0, i64 noundef 0)
  br i1 %130, label %131, label %133

131:                                              ; preds = %122
  %132 = load i32, ptr %17, align 4
  store i32 %132, ptr %16, align 4
  br label %133

133:                                              ; preds = %131, %122
  br label %134

134:                                              ; preds = %133, %117
  br label %135

135:                                              ; preds = %134, %111, %106
  %136 = load i32, ptr %16, align 4
  store i32 %136, ptr %8, align 4
  store i32 1, ptr %21, align 4
  br label %137

137:                                              ; preds = %135, %104
  call void @llvm.lifetime.end.p0(i64 8, ptr %18) #8
  call void @llvm.lifetime.end.p0(i64 4, ptr %17) #8
  call void @llvm.lifetime.end.p0(i64 4, ptr %16) #8
  %138 = load i32, ptr %8, align 4
  ret i32 %138
}