; Function Attrs: nounwind uwtable
define internal fastcc i32 @scanRTEForColumn(ptr noundef %0, ptr noundef %1, ptr readonly captures(address_is_null) %.16.val, ptr noundef %2, i32 noundef %3, i32 noundef %4, ptr noundef captures(address_is_null) %5) unnamed_addr #0 {
  %.not = icmp eq ptr %.16.val, null
  br i1 %.not, label %._crit_edge.thread, label %.lr.ph

.lr.ph:                                           ; preds = %6
  %7 = getelementptr inbounds nuw i8, ptr %.16.val, i64 4
  %8 = getelementptr inbounds nuw i8, ptr %.16.val, i64 16
  %.not42 = icmp eq ptr %5, null
  %9 = getelementptr inbounds nuw i8, ptr %5, i64 24
  %10 = getelementptr inbounds nuw i8, ptr %5, i64 8
  %11 = getelementptr inbounds nuw i8, ptr %5, i64 32
  %12 = getelementptr inbounds nuw i8, ptr %5, i64 16
  %13 = load i32, ptr %7, align 4
  %14 = icmp sgt i32 %13, 0
  br i1 %.not42, label %.lr.ph.split.us.split, label %.lr.ph.split.preheader

.lr.ph.split.preheader:                           ; preds = %.lr.ph
  br i1 %14, label %.lr.ph39, label %._crit_edge

.lr.ph.split.us.split:                            ; preds = %.lr.ph
  br i1 %14, label %.lr.ph17, label %._crit_edge.thread

.lr.ph17:                                         ; preds = %.lr.ph.split.us.split
  %15 = load ptr, ptr %8, align 8
  %wide.trip.count = zext nneg i32 %13 to i64
  br label %16

16:                                               ; preds = %.lr.ph17, %updateFuzzyAttrMatchState.exit.us
  %indvars.iv24 = phi i64 [ 0, %.lr.ph17 ], [ %indvars.iv.next25, %updateFuzzyAttrMatchState.exit.us ]
  %.0318.us14 = phi i32 [ 0, %.lr.ph17 ], [ %.1.us, %updateFuzzyAttrMatchState.exit.us ]
  %17 = getelementptr inbounds nuw %union.ListCell, ptr %15, i64 %indvars.iv24
  %18 = load ptr, ptr %17, align 8
  %19 = getelementptr inbounds nuw i8, ptr %18, i64 8
  %20 = load ptr, ptr %19, align 8
  %indvars.iv.next25 = add nuw nsw i64 %indvars.iv24, 1
  %21 = tail call i32 @strcmp(ptr noundef nonnull dereferenceable(1) %20, ptr noundef nonnull dereferenceable(1) %2) #12
  %22 = icmp eq i32 %21, 0
  br i1 %22, label %23, label %updateFuzzyAttrMatchState.exit.us

23:                                               ; preds = %16
  %indvars = trunc i64 %indvars.iv.next25 to i32
  %.not41.us = icmp eq i32 %.0318.us14, 0
  br i1 %.not41.us, label %updateFuzzyAttrMatchState.exit.us, label %.split.us

updateFuzzyAttrMatchState.exit.us:                ; preds = %23, %16
  %.1.us = phi i32 [ %.0318.us14, %16 ], [ %indvars, %23 ]
  %exitcond.not = icmp eq i64 %indvars.iv.next25, %wide.trip.count
  br i1 %exitcond.not, label %._crit_edge, label %16

._crit_edge:                                      ; preds = %updateFuzzyAttrMatchState.exit, %updateFuzzyAttrMatchState.exit.us, %.lr.ph.split.preheader
  %.031.lcssa = phi i32 [ 0, %.lr.ph.split.preheader ], [ %.1.us, %updateFuzzyAttrMatchState.exit.us ], [ %.1, %updateFuzzyAttrMatchState.exit ]
  %.not38 = icmp eq i32 %.031.lcssa, 0
  br i1 %.not38, label %._crit_edge.thread, label %specialAttNum.exit.thread

.lr.ph39:                                         ; preds = %.lr.ph.split.preheader, %updateFuzzyAttrMatchState.exit
  %.031838 = phi i32 [ %.1, %updateFuzzyAttrMatchState.exit ], [ 0, %.lr.ph.split.preheader ]
  %indvars.iv37 = phi i64 [ %indvars.iv.next, %updateFuzzyAttrMatchState.exit ], [ 0, %.lr.ph.split.preheader ]
  %24 = load ptr, ptr %8, align 8
  %25 = getelementptr inbounds nuw %union.ListCell, ptr %24, i64 %indvars.iv37
  %26 = load ptr, ptr %25, align 8
  %27 = getelementptr inbounds nuw i8, ptr %26, i64 8
  %28 = load ptr, ptr %27, align 8
  %indvars.iv.next = add nuw nsw i64 %indvars.iv37, 1
  %29 = tail call i32 @strcmp(ptr noundef nonnull dereferenceable(1) %28, ptr noundef nonnull dereferenceable(1) %2) #12
  %30 = icmp eq i32 %29, 0
  br i1 %30, label %31, label %36

31:                                               ; preds = %.lr.ph39
  %indvars22 = trunc i64 %indvars.iv.next to i32
  %.not41 = icmp eq i32 %.031838, 0
  br i1 %.not41, label %36, label %.split.us

.split.us:                                        ; preds = %31, %23
  %32 = tail call zeroext i1 @errstart_cold(i32 noundef 21, ptr noundef null) #13
  tail call void @llvm.assume(i1 %32)
  %33 = tail call i32 @errcode(i32 noundef 33583236) #11
  %34 = tail call i32 (ptr, ...) @errmsg(ptr noundef nonnull @.str.9, ptr noundef nonnull %2) #11
  %35 = tail call i32 @parser_errposition(ptr noundef %0, i32 noundef %3) #11
  tail call void @errfinish(ptr noundef nonnull @.str.1, i32 noundef 850, ptr noundef nonnull @__func__.scanRTEForColumn) #11
  unreachable

36:                                               ; preds = %31, %.lr.ph39
  %.1 = phi i32 [ %.031838, %.lr.ph39 ], [ %indvars22, %31 ]
  %37 = load i32, ptr %5, align 8
  %38 = icmp sgt i32 %4, %37
  br i1 %38, label %updateFuzzyAttrMatchState.exit, label %39

39:                                               ; preds = %36
  %40 = load i8, ptr %28, align 1
  %41 = icmp eq i8 %40, 0
  br i1 %41, label %updateFuzzyAttrMatchState.exit, label %42

42:                                               ; preds = %39
  %43 = tail call i64 @strlen(ptr noundef nonnull dereferenceable(1) %2) #12
  %44 = trunc i64 %43 to i32
  %45 = tail call i64 @strlen(ptr noundef nonnull dereferenceable(1) %28) #12
  %46 = trunc i64 %45 to i32
  %reass.sub = sub i32 %37, %4
  %47 = add i32 %reass.sub, 1
  %48 = tail call i32 @varstr_levenshtein_less_equal(ptr noundef nonnull %28, i32 noundef %46, ptr noundef nonnull %2, i32 noundef %44, i32 noundef 1, i32 noundef 1, i32 noundef 1, i32 noundef %47, i1 noundef zeroext true) #11
  %49 = sdiv i32 %44, 2
  %50 = icmp sgt i32 %48, %49
  br i1 %50, label %updateFuzzyAttrMatchState.exit, label %51

51:                                               ; preds = %42
  %52 = add i32 %48, %4
  %53 = load i32, ptr %5, align 8
  %54 = icmp slt i32 %52, %53
  br i1 %54, label %55, label %57

55:                                               ; preds = %51
  store i32 %52, ptr %5, align 8
  store ptr %1, ptr %10, align 8
  %56 = trunc i64 %indvars.iv.next to i16
  store i16 %56, ptr %12, align 8
  store ptr null, ptr %9, align 8
  br label %updateFuzzyAttrMatchState.exit

57:                                               ; preds = %51
  %58 = icmp eq i32 %52, %53
  br i1 %58, label %59, label %updateFuzzyAttrMatchState.exit

59:                                               ; preds = %57
  %60 = load ptr, ptr %9, align 8
  %.not.i = icmp eq ptr %60, null
  br i1 %.not.i, label %62, label %61

61:                                               ; preds = %59
  store ptr null, ptr %10, align 8
  store ptr null, ptr %9, align 8
  br label %updateFuzzyAttrMatchState.exit

62:                                               ; preds = %59
  %63 = load ptr, ptr %10, align 8
  %.not36.i = icmp eq ptr %63, null
  br i1 %.not36.i, label %updateFuzzyAttrMatchState.exit, label %64

64:                                               ; preds = %62
  store ptr %1, ptr %9, align 8
  %65 = trunc i64 %indvars.iv.next to i16
  store i16 %65, ptr %11, align 8
  br label %updateFuzzyAttrMatchState.exit

updateFuzzyAttrMatchState.exit:                   ; preds = %64, %62, %61, %57, %55, %42, %39, %36
  %66 = load i32, ptr %7, align 4
  %67 = sext i32 %66 to i64
  %68 = icmp slt i64 %indvars.iv.next, %67
  br i1 %68, label %.lr.ph39, label %._crit_edge

._crit_edge.thread:                               ; preds = %.lr.ph.split.us.split, %6, %._crit_edge
  %69 = getelementptr inbounds nuw i8, ptr %1, i64 24
  %70 = load i32, ptr %69, align 8
  %71 = icmp eq i32 %70, 0
  br i1 %71, label %72, label %specialAttNum.exit.thread

72:                                               ; preds = %._crit_edge.thread
  %73 = getelementptr inbounds nuw i8, ptr %1, i64 33
  %74 = load i8, ptr %73, align 1
  %.not39 = icmp eq i8 %74, 99
  br i1 %.not39, label %specialAttNum.exit.thread, label %75

75:                                               ; preds = %72
  %76 = tail call ptr @SystemAttributeByName(ptr noundef %2) #11
  %.not.i43 = icmp eq ptr %76, null
  br i1 %.not.i43, label %specialAttNum.exit.thread, label %specialAttNum.exit

specialAttNum.exit:                               ; preds = %75
  %77 = getelementptr inbounds nuw i8, ptr %76, i64 74
  %78 = load i16, ptr %77, align 2
  %.not40 = icmp eq i16 %78, 0
  br i1 %.not40, label %specialAttNum.exit.thread, label %79

79:                                               ; preds = %specialAttNum.exit
  %80 = sext i16 %78 to i32
  %81 = getelementptr inbounds nuw i8, ptr %1, i64 28
  %82 = load i32, ptr %81, align 4
  %83 = zext i32 %82 to i64
  %84 = sext i16 %78 to i64
  %85 = tail call zeroext i1 @SearchSysCacheExists(i32 noundef 7, i64 noundef %83, i64 noundef %84, i64 noundef 0, i64 noundef 0) #11
  %spec.select = select i1 %85, i32 %80, i32 0
  br label %specialAttNum.exit.thread

specialAttNum.exit.thread:                        ; preds = %75, %79, %._crit_edge.thread, %72, %specialAttNum.exit, %._crit_edge
  %.0 = phi i32 [ %.031.lcssa, %._crit_edge ], [ 0, %specialAttNum.exit ], [ 0, %72 ], [ 0, %._crit_edge.thread ], [ %spec.select, %79 ], [ 0, %75 ]
  ret i32 %.0
}